target datalayout = "e-m:e-p270:32:32-p271:32:32-p272:64:64-i64:64-i128:128-f80:128-n8:16:32:64-S128"
target triple = "x86_64-unknown-linux-gnu"

%class.btVector3 = type { [4 x float] }
%class.btMatrix3x3 = type { [3 x %class.btVector3] }
%class.btTransform = type { %class.btMatrix3x3, %class.btVector3 }
%class.btAlignedObjectArray.8 = type <{ %class.btAlignedAllocator.9, [3 x i8], i32, i32, [4 x i8], ptr, i8, [7 x i8] }>
%class.btAlignedAllocator.9 = type { i8 }
%class.btAlignedObjectArray.12 = type <{ %class.btAlignedAllocator.13, [3 x i8], i32, i32, [4 x i8], ptr, i8, [7 x i8] }>
%class.btAlignedAllocator.13 = type { i8 }
%"struct.btSoftBody::Cluster" = type { %class.btAlignedObjectArray.12, %class.btAlignedObjectArray.124, %class.btAlignedObjectArray.8, %class.btTransform, float, float, %class.btMatrix3x3, %class.btMatrix3x3, %class.btVector3, [2 x %class.btVector3], [2 x %class.btVector3], i32, i32, %class.btVector3, %class.btVector3, ptr, float, float, float, float, float, float, i8, i8, i32 }
%class.btAlignedObjectArray.124 = type <{ %class.btAlignedAllocator.125, [3 x i8], i32, i32, [4 x i8], ptr, i8, [7 x i8] }>
%class.btAlignedAllocator.125 = type { i8 }

; Function Attrs: mustprogress nounwind uwtable
define linkonce_odr dso_local void @_ZN9btVector3C2ERKfS1_S1_(ptr noundef nonnull align 4 dereferenceable(16) %this, ptr noundef nonnull align 4 dereferenceable(4) %_x, ptr noundef nonnull align 4 dereferenceable(4) %_y, ptr noundef nonnull align 4 dereferenceable(4) %_z) unnamed_addr #1 comdat align 2 {
entry:
  %this.addr = alloca ptr, align 8
  %_x.addr = alloca ptr, align 8
  %_y.addr = alloca ptr, align 8
  %_z.addr = alloca ptr, align 8
  store ptr %this, ptr %this.addr, align 8
  store ptr %_x, ptr %_x.addr, align 8
  store ptr %_y, ptr %_y.addr, align 8
  store ptr %_z, ptr %_z.addr, align 8
  %this1 = load ptr, ptr %this.addr, align 8
  %0 = load ptr, ptr %_x.addr, align 8
  %1 = load float, ptr %0, align 4
  %m_floats = getelementptr inbounds %class.btVector3, ptr %this1, i32 0, i32 0
  %arrayidx = getelementptr inbounds [4 x float], ptr %m_floats, i64 0, i64 0
  store float %1, ptr %arrayidx, align 4
  %2 = load ptr, ptr %_y.addr, align 8
  %3 = load float, ptr %2, align 4
  %m_floats2 = getelementptr inbounds %class.btVector3, ptr %this1, i32 0, i32 0
  %arrayidx3 = getelementptr inbounds [4 x float], ptr %m_floats2, i64 0, i64 1
  store float %3, ptr %arrayidx3, align 4
  %4 = load ptr, ptr %_z.addr, align 8
  %5 = load float, ptr %4, align 4
  %m_floats4 = getelementptr inbounds %class.btVector3, ptr %this1, i32 0, i32 0
  %arrayidx5 = getelementptr inbounds [4 x float], ptr %m_floats4, i64 0, i64 2
  store float %5, ptr %arrayidx5, align 4
  %m_floats6 = getelementptr inbounds %class.btVector3, ptr %this1, i32 0, i32 0
  %arrayidx7 = getelementptr inbounds [4 x float], ptr %m_floats6, i64 0, i64 3
  store float 0.000000e+00, ptr %arrayidx7, align 4
  ret void
}

; Function Attrs: mustprogress uwtable
define linkonce_odr dso_local { <2 x float>, <2 x float> } @_ZNK9btVector35crossERKS_(ptr noundef nonnull align 4 dereferenceable(16) %this, ptr noundef nonnull align 4 dereferenceable(16) %v) #5 comdat align 2 {
entry:
  %retval = alloca %class.btVector3, align 4
  %this.addr = alloca ptr, align 8
  %v.addr = alloca ptr, align 8
  %ref.tmp = alloca float, align 4
  %ref.tmp9 = alloca float, align 4
  %ref.tmp20 = alloca float, align 4
  store ptr %this, ptr %this.addr, align 8
  store ptr %v, ptr %v.addr, align 8
  %this1 = load ptr, ptr %this.addr, align 8
  %m_floats = getelementptr inbounds %class.btVector3, ptr %this1, i32 0, i32 0
  %arrayidx = getelementptr inbounds [4 x float], ptr %m_floats, i64 0, i64 1
  %0 = load float, ptr %arrayidx, align 4
  %1 = load ptr, ptr %v.addr, align 8
  %m_floats2 = getelementptr inbounds %class.btVector3, ptr %1, i32 0, i32 0
  %arrayidx3 = getelementptr inbounds [4 x float], ptr %m_floats2, i64 0, i64 2
  %2 = load float, ptr %arrayidx3, align 4
  %m_floats4 = getelementptr inbounds %class.btVector3, ptr %this1, i32 0, i32 0
  %arrayidx5 = getelementptr inbounds [4 x float], ptr %m_floats4, i64 0, i64 2
  %3 = load float, ptr %arrayidx5, align 4
  %4 = load ptr, ptr %v.addr, align 8
  %m_floats6 = getelementptr inbounds %class.btVector3, ptr %4, i32 0, i32 0
  %arrayidx7 = getelementptr inbounds [4 x float], ptr %m_floats6, i64 0, i64 1
  %5 = load float, ptr %arrayidx7, align 4
  %mul8 = fmul float %3, %5
  %neg = fneg float %mul8
  %6 = call float @llvm.fmuladd.f32(float %0, float %2, float %neg)
  store float %6, ptr %ref.tmp, align 4
  %m_floats10 = getelementptr inbounds %class.btVector3, ptr %this1, i32 0, i32 0
  %arrayidx11 = getelementptr inbounds [4 x float], ptr %m_floats10, i64 0, i64 2
  %7 = load float, ptr %arrayidx11, align 4
  %8 = load ptr, ptr %v.addr, align 8
  %m_floats12 = getelementptr inbounds %class.btVector3, ptr %8, i32 0, i32 0
  %arrayidx13 = getelementptr inbounds [4 x float], ptr %m_floats12, i64 0, i64 0
  %9 = load float, ptr %arrayidx13, align 4
  %m_floats14 = getelementptr inbounds %class.btVector3, ptr %this1, i32 0, i32 0
  %arrayidx15 = getelementptr inbounds [4 x float], ptr %m_floats14, i64 0, i64 0
  %10 = load float, ptr %arrayidx15, align 4
  %11 = load ptr, ptr %v.addr, align 8
  %m_floats16 = getelementptr inbounds %class.btVector3, ptr %11, i32 0, i32 0
  %arrayidx17 = getelementptr inbounds [4 x float], ptr %m_floats16, i64 0, i64 2
  %12 = load float, ptr %arrayidx17, align 4
  %mul18 = fmul float %10, %12
  %neg19 = fneg float %mul18
  %13 = call float @llvm.fmuladd.f32(float %7, float %9, float %neg19)
  store float %13, ptr %ref.tmp9, align 4
  %m_floats21 = getelementptr inbounds %class.btVector3, ptr %this1, i32 0, i32 0
  %arrayidx22 = getelementptr inbounds [4 x float], ptr %m_floats21, i64 0, i64 0
  %14 = load float, ptr %arrayidx22, align 4
  %15 = load ptr, ptr %v.addr, align 8
  %m_floats23 = getelementptr inbounds %class.btVector3, ptr %15, i32 0, i32 0
  %arrayidx24 = getelementptr inbounds [4 x float], ptr %m_floats23, i64 0, i64 1
  %16 = load float, ptr %arrayidx24, align 4
  %m_floats25 = getelementptr inbounds %class.btVector3, ptr %this1, i32 0, i32 0
  %arrayidx26 = getelementptr inbounds [4 x float], ptr %m_floats25, i64 0, i64 1
  %17 = load float, ptr %arrayidx26, align 4
  %18 = load ptr, ptr %v.addr, align 8
  %m_floats27 = getelementptr inbounds %class.btVector3, ptr %18, i32 0, i32 0
  %arrayidx28 = getelementptr inbounds [4 x float], ptr %m_floats27, i64 0, i64 0
  %19 = load float, ptr %arrayidx28, align 4
  %mul29 = fmul float %17, %19
  %neg30 = fneg float %mul29
  %20 = call float @llvm.fmuladd.f32(float %14, float %16, float %neg30)
  store float %20, ptr %ref.tmp20, align 4
  call void @_ZN9btVector3C2ERKfS1_S1_(ptr noundef nonnull align 4 dereferenceable(16) %retval, ptr noundef nonnull align 4 dereferenceable(4) %ref.tmp, ptr noundef nonnull align 4 dereferenceable(4) %ref.tmp9, ptr noundef nonnull align 4 dereferenceable(4) %ref.tmp20)
  %coerce.dive = getelementptr inbounds %class.btVector3, ptr %retval, i32 0, i32 0
  %21 = load { <2 x float>, <2 x float> }, ptr %coerce.dive, align 4
  ret { <2 x float>, <2 x float> } %21
}

; Function Attrs: mustprogress uwtable
define linkonce_odr dso_local { <2 x float>, <2 x float> } @_ZplRK9btVector3S1_(ptr noundef nonnull align 4 dereferenceable(16) %v1, ptr noundef nonnull align 4 dereferenceable(16) %v2) #5 comdat {
entry:
  %retval = alloca %class.btVector3, align 4
  %v1.addr = alloca ptr, align 8
  %v2.addr = alloca ptr, align 8
  %ref.tmp = alloca float, align 4
  %ref.tmp3 = alloca float, align 4
  %ref.tmp9 = alloca float, align 4
  store ptr %v1, ptr %v1.addr, align 8
  store ptr %v2, ptr %v2.addr, align 8
  %0 = load ptr, ptr %v1.addr, align 8
  %m_floats = getelementptr inbounds %class.btVector3, ptr %0, i32 0, i32 0
  %arrayidx = getelementptr inbounds [4 x float], ptr %m_floats, i64 0, i64 0
  %1 = load float, ptr %arrayidx, align 4
  %2 = load ptr, ptr %v2.addr, align 8
  %m_floats1 = getelementptr inbounds %class.btVector3, ptr %2, i32 0, i32 0
  %arrayidx2 = getelementptr inbounds [4 x float], ptr %m_floats1, i64 0, i64 0
  %3 = load float, ptr %arrayidx2, align 4
  %add = fadd float %1, %3
  store float %add, ptr %ref.tmp, align 4
  %4 = load ptr, ptr %v1.addr, align 8
  %m_floats4 = getelementptr inbounds %class.btVector3, ptr %4, i32 0, i32 0
  %arrayidx5 = getelementptr inbounds [4 x float], ptr %m_floats4, i64 0, i64 1
  %5 = load float, ptr %arrayidx5, align 4
  %6 = load ptr, ptr %v2.addr, align 8
  %m_floats6 = getelementptr inbounds %class.btVector3, ptr %6, i32 0, i32 0
  %arrayidx7 = getelementptr inbounds [4 x float], ptr %m_floats6, i64 0, i64 1
  %7 = load float, ptr %arrayidx7, align 4
  %add8 = fadd float %5, %7
  store float %add8, ptr %ref.tmp3, align 4
  %8 = load ptr, ptr %v1.addr, align 8
  %m_floats10 = getelementptr inbounds %class.btVector3, ptr %8, i32 0, i32 0
  %arrayidx11 = getelementptr inbounds [4 x float], ptr %m_floats10, i64 0, i64 2
  %9 = load float, ptr %arrayidx11, align 4
  %10 = load ptr, ptr %v2.addr, align 8
  %m_floats12 = getelementptr inbounds %class.btVector3, ptr %10, i32 0, i32 0
  %arrayidx13 = getelementptr inbounds [4 x float], ptr %m_floats12, i64 0, i64 2
  %11 = load float, ptr %arrayidx13, align 4
  %add14 = fadd float %9, %11
  store float %add14, ptr %ref.tmp9, align 4
  call void @_ZN9btVector3C2ERKfS1_S1_(ptr noundef nonnull align 4 dereferenceable(16) %retval, ptr noundef nonnull align 4 dereferenceable(4) %ref.tmp, ptr noundef nonnull align 4 dereferenceable(4) %ref.tmp3, ptr noundef nonnull align 4 dereferenceable(4) %ref.tmp9)
  %coerce.dive = getelementptr inbounds %class.btVector3, ptr %retval, i32 0, i32 0
  %12 = load { <2 x float>, <2 x float> }, ptr %coerce.dive, align 4
  ret { <2 x float>, <2 x float> } %12
}

; Function Attrs: mustprogress uwtable
define linkonce_odr dso_local { <2 x float>, <2 x float> } @_Z7btCrossRK9btVector3S1_(ptr noundef nonnull align 4 dereferenceable(16) %v1, ptr noundef nonnull align 4 dereferenceable(16) %v2) #8 comdat {
entry:
  %retval = alloca %class.btVector3, align 4
  %v1.addr = alloca ptr, align 8
  %v2.addr = alloca ptr, align 8
  store ptr %v1, ptr %v1.addr, align 8
  store ptr %v2, ptr %v2.addr, align 8
  %0 = load ptr, ptr %v1.addr, align 8
  %1 = load ptr, ptr %v2.addr, align 8
  %call = call { <2 x float>, <2 x float> } @_ZNK9btVector35crossERKS_(ptr noundef nonnull align 4 dereferenceable(16) %0, ptr noundef nonnull align 4 dereferenceable(16) %1)
  %coerce.dive = getelementptr inbounds %class.btVector3, ptr %retval, i32 0, i32 0
  %2 = getelementptr inbounds { <2 x float>, <2 x float> }, ptr %coerce.dive, i32 0, i32 0
  %3 = extractvalue { <2 x float>, <2 x float> } %call, 0
  store <2 x float> %3, ptr %2, align 4
  %4 = getelementptr inbounds { <2 x float>, <2 x float> }, ptr %coerce.dive, i32 0, i32 1
  %5 = extractvalue { <2 x float>, <2 x float> } %call, 1
  store <2 x float> %5, ptr %4, align 4
  %coerce.dive1 = getelementptr inbounds %class.btVector3, ptr %retval, i32 0, i32 0
  %6 = load { <2 x float>, <2 x float> }, ptr %coerce.dive1, align 4
  ret { <2 x float>, <2 x float> } %6
}

; Function Attrs: mustprogress uwtable
define dso_local { <2 x float>, <2 x float> } @_ZN10btSoftBody15clusterVelocityEPKNS_7ClusterERK9btVector3(ptr noundef %cluster, ptr noundef nonnull align 4 dereferenceable(16) %rpos) #8 align 2 {
entry:
  %retval = alloca %class.btVector3, align 4
  %cluster.addr = alloca ptr, align 8
  %rpos.addr = alloca ptr, align 8
  %ref.tmp = alloca %class.btVector3, align 4
  store ptr %cluster, ptr %cluster.addr, align 8
  store ptr %rpos, ptr %rpos.addr, align 8
  %0 = load ptr, ptr %cluster.addr, align 8
  %m_lv = getelementptr inbounds %"struct.btSoftBody::Cluster", ptr %0, i32 0, i32 13
  %1 = load ptr, ptr %cluster.addr, align 8
  %m_av = getelementptr inbounds %"struct.btSoftBody::Cluster", ptr %1, i32 0, i32 14
  %2 = load ptr, ptr %rpos.addr, align 8
  %call = call { <2 x float>, <2 x float> } @_Z7btCrossRK9btVector3S1_(ptr noundef nonnull align 4 dereferenceable(16) %m_av, ptr noundef nonnull align 4 dereferenceable(16) %2)
  %coerce.dive = getelementptr inbounds %class.btVector3, ptr %ref.tmp, i32 0, i32 0
  %3 = getelementptr inbounds { <2 x float>, <2 x float> }, ptr %coerce.dive, i32 0, i32 0
  %4 = extractvalue { <2 x float>, <2 x float> } %call, 0
  store <2 x float> %4, ptr %3, align 4
  %5 = getelementptr inbounds { <2 x float>, <2 x float> }, ptr %coerce.dive, i32 0, i32 1
  %6 = extractvalue { <2 x float>, <2 x float> } %call, 1
  store <2 x float> %6, ptr %5, align 4
  %call1 = call { <2 x float>, <2 x float> } @_ZplRK9btVector3S1_(ptr noundef nonnull align 4 dereferenceable(16) %m_lv, ptr noundef nonnull align 4 dereferenceable(16) %ref.tmp)
  %coerce.dive2 = getelementptr inbounds %class.btVector3, ptr %retval, i32 0, i32 0
  %7 = getelementptr inbounds { <2 x float>, <2 x float> }, ptr %coerce.dive2, i32 0, i32 0
  %8 = extractvalue { <2 x float>, <2 x float> } %call1, 0
  store <2 x float> %8, ptr %7, align 4
  %9 = getelementptr inbounds { <2 x float>, <2 x float> }, ptr %coerce.dive2, i32 0, i32 1
  %10 = extractvalue { <2 x float>, <2 x float> } %call1, 1
  store <2 x float> %10, ptr %9, align 4
  %coerce.dive3 = getelementptr inbounds %class.btVector3, ptr %retval, i32 0, i32 0
  %11 = load { <2 x float>, <2 x float> }, ptr %coerce.dive3, align 4
  ret { <2 x float>, <2 x float> } %11
}