; Function Attrs: mustprogress nofree norecurse nosync nounwind willreturn memory(argmem: read) uwtable
define dso_local { <2 x float>, <2 x float> } @_ZN10btSoftBody15clusterVelocityEPKNS_7ClusterERK9btVector3(ptr nocapture noundef readonly %cluster, ptr nocapture noundef nonnull readonly align 4 dereferenceable(16) %rpos) local_unnamed_addr #22 align 2 {
entry:
  %m_lv = getelementptr inbounds i8, ptr %cluster, i64 352
  %m_av = getelementptr inbounds i8, ptr %cluster, i64 368
  %arrayidx3.i.i = getelementptr inbounds i8, ptr %rpos, i64 8
  %0 = load float, ptr %arrayidx3.i.i, align 4
  %arrayidx5.i.i = getelementptr inbounds i8, ptr %cluster, i64 376
  %1 = load float, ptr %arrayidx5.i.i, align 4
  %2 = fneg float %1
  %3 = load float, ptr %m_lv, align 4
  %arrayidx5.i = getelementptr inbounds i8, ptr %cluster, i64 356
  %4 = load <2 x float>, ptr %rpos, align 4
  %5 = extractelement <2 x float> %4, i64 1
  %neg.i.i = fmul float %5, %2
  %6 = load <2 x float>, ptr %m_av, align 4
  %7 = extractelement <2 x float> %6, i64 1
  %8 = tail call float @llvm.fmuladd.f32(float %7, float %0, float %neg.i.i)
  %9 = fneg <2 x float> %6
  %10 = insertelement <2 x float> poison, float %0, i64 0
  %11 = shufflevector <2 x float> %10, <2 x float> %4, <2 x i32> <i32 0, i32 2>
  %12 = fmul <2 x float> %11, %9
  %13 = insertelement <2 x float> poison, float %1, i64 0
  %14 = shufflevector <2 x float> %13, <2 x float> %6, <2 x i32> <i32 0, i32 2>
  %15 = tail call <2 x float> @llvm.fmuladd.v2f32(<2 x float> %14, <2 x float> %4, <2 x float> %12)
  %add.i = fadd float %8, %3
  %16 = load <2 x float>, ptr %arrayidx5.i, align 4
  %17 = fadd <2 x float> %16, %15
  %retval.sroa.0.0.vec.insert.i = insertelement <2 x float> poison, float %add.i, i64 0
  %18 = shufflevector <2 x float> %retval.sroa.0.0.vec.insert.i, <2 x float> %17, <2 x i32> <i32 0, i32 2>
  %19 = shufflevector <2 x float> <float poison, float 0.000000e+00>, <2 x float> %17, <2 x i32> <i32 3, i32 1>
  %.fca.0.insert.i = insertvalue { <2 x float>, <2 x float> } poison, <2 x float> %18, 0
  %.fca.1.insert.i = insertvalue { <2 x float>, <2 x float> } %.fca.0.insert.i, <2 x float> %19, 1
  ret { <2 x float>, <2 x float> } %.fca.1.insert.i
}